target datalayout = "e-m:e-p270:32:32-p271:32:32-p272:64:64-i64:64-i128:128-f80:128-n8:16:32:64-S128"
target triple = "x86_64-pc-linux-gnu"

%struct.rb_code_location_struct = type { %struct.rb_code_position_struct, %struct.rb_code_position_struct }
%struct.rb_code_position_struct = type { i32, i32 }
%struct.lex_context = type { i16, [2 x i8] }
%struct.parser_params = type { ptr, ptr, %struct.anon.12, i64, i64, i32, i32, i32, i32, i32, ptr, ptr, ptr, ptr, i32, i32, ptr, i64, ptr, ptr, ptr, ptr, i64, i64, %struct.anon.13, ptr, i32, ptr, i32, i64, %struct.lex_context, ptr, ptr, ptr, i32, i64, ptr, ptr, i32, ptr }
%struct.anon.12 = type { ptr, ptr, ptr, %struct.parser_string_buffer, ptr, ptr, ptr, ptr, ptr, ptr, i32, i32, i32, i32 }
%struct.parser_string_buffer = type { ptr, ptr }
%struct.anon.13 = type { ptr, i32, i32, i32, i32 }
%struct.RNode = type { i64, %struct.rb_code_location_struct, i32 }
%struct.RNode_MASGN = type { %struct.RNode, ptr, ptr, ptr }
%struct.__va_list_tag = type { i32, i32, ptr, ptr }
%struct.RNode_ATTRASGN = type { %struct.RNode, ptr, i64, ptr }
%struct.RNode_CDECL = type { %struct.RNode, i64, ptr, ptr, i32 }
%struct.RNode_GASGN = type { %struct.RNode, i64, ptr }
%struct.RNode_IASGN = type { %struct.RNode, i64, ptr }
%struct.RNode_LASGN = type { %struct.RNode, i64, ptr }
%struct.RNode_DASGN = type { %struct.RNode, i64, ptr }
%struct.RNode_CVASGN = type { %struct.RNode, i64, ptr }

@.str.556 = private unnamed_addr constant [14 x i8] c"NODE_DEF_TEMP\00", align 1
@.str.557 = private unnamed_addr constant [11 x i8] c"NODE_EXITS\00", align 1
@.str.571 = private unnamed_addr constant [34 x i8] c"set_nd_value: unexpected node: %s\00", align 1

; Function Attrs: inlinehint nounwind sspstrong uwtable
define internal i32 @rb_long2int_inline(i64 noundef %0) #2 {
  %2 = alloca i64, align 8
  %3 = alloca i32, align 4
  store i64 %0, ptr %2, align 8, !tbaa !12
  call void @llvm.lifetime.start.p0(i64 4, ptr %3) #26
  %4 = load i64, ptr %2, align 8, !tbaa !12
  %5 = trunc i64 %4 to i32
  store i32 %5, ptr %3, align 4, !tbaa !34
  %6 = load i32, ptr %3, align 4, !tbaa !34
  %7 = sext i32 %6 to i64
  %8 = load i64, ptr %2, align 8, !tbaa !12
  %9 = icmp ne i64 %7, %8
  br i1 %9, label %10, label %12

10:                                               ; preds = %1
  %11 = load i64, ptr %2, align 8, !tbaa !12
  call void @rb_out_of_int(i64 noundef %11) #32
  unreachable

12:                                               ; preds = %1
  %13 = load i32, ptr %3, align 4, !tbaa !34
  call void @llvm.lifetime.end.p0(i64 4, ptr %3) #26
  ret i32 %13
}

; Function Attrs: inlinehint nounwind sspstrong uwtable
define internal void @nd_set_line(ptr noundef %0, i64 noundef %1) #2 {
  %3 = alloca ptr, align 8
  %4 = alloca i64, align 8
  store ptr %0, ptr %3, align 8, !tbaa !65
  store i64 %1, ptr %4, align 8, !tbaa !12
  %5 = load ptr, ptr %3, align 8, !tbaa !65
  %6 = getelementptr inbounds nuw %struct.RNode, ptr %5, i32 0, i32 0
  %7 = load i64, ptr %6, align 8, !tbaa !110
  %8 = and i64 %7, 32767
  store i64 %8, ptr %6, align 8, !tbaa !110
  %9 = load i64, ptr %4, align 8, !tbaa !12
  %10 = and i64 %9, 562949953421311
  %11 = shl i64 %10, 15
  %12 = load ptr, ptr %3, align 8, !tbaa !65
  %13 = getelementptr inbounds nuw %struct.RNode, ptr %12, i32 0, i32 0
  %14 = load i64, ptr %13, align 8, !tbaa !110
  %15 = or i64 %14, %11
  store i64 %15, ptr %13, align 8, !tbaa !110
  ret void
}

; Function Attrs: nounwind sspstrong uwtable
define internal void @parser_compile_error(ptr noundef %0, ptr noundef %1, ptr noundef %2, ...) #0 {
  %4 = alloca ptr, align 8
  %5 = alloca ptr, align 8
  %6 = alloca ptr, align 8
  %7 = alloca [1 x %struct.__va_list_tag], align 16
  %8 = alloca i32, align 4
  %9 = alloca i32, align 4
  store ptr %0, ptr %4, align 8, !tbaa !7
  store ptr %1, ptr %5, align 8, !tbaa !39
  store ptr %2, ptr %6, align 8, !tbaa !19
  call void @llvm.lifetime.start.p0(i64 24, ptr %7) #26
  call void @llvm.lifetime.start.p0(i64 4, ptr %8) #26
  call void @llvm.lifetime.start.p0(i64 4, ptr %9) #26
  %10 = load ptr, ptr %5, align 8, !tbaa !39
  %11 = icmp ne ptr %10, null
  br i1 %11, label %12, label %21

12:                                               ; preds = %3
  %13 = load ptr, ptr %5, align 8, !tbaa !39
  %14 = getelementptr inbounds nuw %struct.rb_code_location_struct, ptr %13, i32 0, i32 1
  %15 = getelementptr inbounds nuw %struct.rb_code_position_struct, ptr %14, i32 0, i32 0
  %16 = load i32, ptr %15, align 4, !tbaa !99
  store i32 %16, ptr %8, align 4, !tbaa !34
  %17 = load ptr, ptr %5, align 8, !tbaa !39
  %18 = getelementptr inbounds nuw %struct.rb_code_location_struct, ptr %17, i32 0, i32 1
  %19 = getelementptr inbounds nuw %struct.rb_code_position_struct, ptr %18, i32 0, i32 1
  %20 = load i32, ptr %19, align 4, !tbaa !145
  store i32 %20, ptr %9, align 4, !tbaa !34
  br label %37

21:                                               ; preds = %3
  %22 = load ptr, ptr %4, align 8, !tbaa !7
  %23 = getelementptr inbounds nuw %struct.parser_params, ptr %22, i32 0, i32 15
  %24 = load i32, ptr %23, align 4, !tbaa !82
  store i32 %24, ptr %8, align 4, !tbaa !34
  %25 = load ptr, ptr %4, align 8, !tbaa !7
  %26 = getelementptr inbounds nuw %struct.parser_params, ptr %25, i32 0, i32 2
  %27 = getelementptr inbounds nuw %struct.anon.12, ptr %26, i32 0, i32 7
  %28 = load ptr, ptr %27, align 8, !tbaa !161
  %29 = load ptr, ptr %4, align 8, !tbaa !7
  %30 = getelementptr inbounds nuw %struct.parser_params, ptr %29, i32 0, i32 2
  %31 = getelementptr inbounds nuw %struct.anon.12, ptr %30, i32 0, i32 6
  %32 = load ptr, ptr %31, align 8, !tbaa !128
  %33 = ptrtoint ptr %28 to i64
  %34 = ptrtoint ptr %32 to i64
  %35 = sub i64 %33, %34
  %36 = call i32 @rb_long2int_inline(i64 noundef %35)
  store i32 %36, ptr %9, align 4, !tbaa !34
  br label %37

37:                                               ; preds = %21, %12
  %38 = load ptr, ptr %4, align 8, !tbaa !7
  %39 = getelementptr inbounds nuw %struct.parser_params, ptr %38, i32 0, i32 23
  %40 = load i64, ptr %39, align 8, !tbaa !168
  %41 = call i64 @rb_io_flush(i64 noundef %40)
  %42 = load ptr, ptr %4, align 8, !tbaa !7
  %43 = getelementptr inbounds nuw %struct.parser_params, ptr %42, i32 0, i32 34
  %44 = load i32, ptr %43, align 8
  %45 = and i32 %44, -513
  %46 = or i32 %45, 512
  store i32 %46, ptr %43, align 8
  %47 = getelementptr inbounds [1 x %struct.__va_list_tag], ptr %7, i64 0, i64 0
  call void @llvm.va_start.p0(ptr %47)
  %48 = load ptr, ptr %4, align 8, !tbaa !7
  %49 = getelementptr inbounds nuw %struct.parser_params, ptr %48, i32 0, i32 35
  %50 = load i64, ptr %49, align 8, !tbaa !453
  %51 = load ptr, ptr %4, align 8, !tbaa !7
  %52 = getelementptr inbounds nuw %struct.parser_params, ptr %51, i32 0, i32 17
  %53 = load i64, ptr %52, align 8, !tbaa !454
  %54 = load i32, ptr %8, align 4, !tbaa !34
  %55 = load i32, ptr %9, align 4, !tbaa !34
  %56 = load ptr, ptr %4, align 8, !tbaa !7
  %57 = getelementptr inbounds nuw %struct.parser_params, ptr %56, i32 0, i32 18
  %58 = load ptr, ptr %57, align 8, !tbaa !148
  %59 = load ptr, ptr %6, align 8, !tbaa !19
  %60 = getelementptr inbounds [1 x %struct.__va_list_tag], ptr %7, i64 0, i64 0
  %61 = call i64 @rb_syntax_error_append(i64 noundef %50, i64 noundef %53, i32 noundef %54, i32 noundef %55, ptr noundef %58, ptr noundef %59, ptr noundef %60)
  %62 = load ptr, ptr %4, align 8, !tbaa !7
  %63 = getelementptr inbounds nuw %struct.parser_params, ptr %62, i32 0, i32 35
  store i64 %61, ptr %63, align 8, !tbaa !453
  %64 = getelementptr inbounds [1 x %struct.__va_list_tag], ptr %7, i64 0, i64 0
  call void @llvm.va_end.p0(ptr %64)
  call void @llvm.lifetime.end.p0(i64 4, ptr %9) #26
  call void @llvm.lifetime.end.p0(i64 4, ptr %8) #26
  call void @llvm.lifetime.end.p0(i64 24, ptr %7) #26
  ret void
}

; Function Attrs: nounwind sspstrong uwtable
define internal ptr @parser_node_name(i32 noundef %0) #0 {
  %2 = alloca ptr, align 8
  %3 = alloca i32, align 4
  store i32 %0, ptr %3, align 4, !tbaa !34
  %4 = load i32, ptr %3, align 4, !tbaa !34
  switch i32 %4, label %7 [
    i32 113, label %5
    i32 114, label %6
  ]

5:                                                ; preds = %1
  store ptr @.str.556, ptr %2, align 8
  br label %10

6:                                                ; preds = %1
  store ptr @.str.557, ptr %2, align 8
  br label %10

7:                                                ; preds = %1
  %8 = load i32, ptr %3, align 4, !tbaa !34
  %9 = call ptr @ruby_node_name(i32 noundef %8)
  store ptr %9, ptr %2, align 8
  br label %10

10:                                               ; preds = %7, %6, %5
  %11 = load ptr, ptr %2, align 8
  ret ptr %11
}

; Function Attrs: nounwind sspstrong uwtable
define internal ptr @nd_set_loc(ptr noundef %0, ptr noundef %1) #0 {
  %3 = alloca ptr, align 8
  %4 = alloca ptr, align 8
  store ptr %0, ptr %3, align 8, !tbaa !65
  store ptr %1, ptr %4, align 8, !tbaa !39
  %5 = load ptr, ptr %3, align 8, !tbaa !65
  %6 = getelementptr inbounds nuw %struct.RNode, ptr %5, i32 0, i32 1
  %7 = load ptr, ptr %4, align 8, !tbaa !39
  call void @llvm.memcpy.p0.p0.i64(ptr align 8 %6, ptr align 4 %7, i64 16, i1 false), !tbaa.struct !33
  %8 = load ptr, ptr %3, align 8, !tbaa !65
  %9 = load ptr, ptr %4, align 8, !tbaa !39
  %10 = getelementptr inbounds nuw %struct.rb_code_location_struct, ptr %9, i32 0, i32 0
  %11 = getelementptr inbounds nuw %struct.rb_code_position_struct, ptr %10, i32 0, i32 0
  %12 = load i32, ptr %11, align 4, !tbaa !173
  %13 = sext i32 %12 to i64
  call void @nd_set_line(ptr noundef %8, i64 noundef %13)
  %14 = load ptr, ptr %3, align 8, !tbaa !65
  ret ptr %14
}

; Function Attrs: nounwind sspstrong uwtable
define internal void @set_nd_value(ptr noundef %0, ptr noundef %1, ptr noundef %2) #0 {
  %4 = alloca ptr, align 8
  %5 = alloca ptr, align 8
  %6 = alloca ptr, align 8
  store ptr %0, ptr %4, align 8, !tbaa !7
  store ptr %1, ptr %5, align 8, !tbaa !65
  store ptr %2, ptr %6, align 8, !tbaa !65
  %7 = load ptr, ptr %5, align 8, !tbaa !65
  %8 = getelementptr inbounds nuw %struct.RNode, ptr %7, i32 0, i32 0
  %9 = load i64, ptr %8, align 8, !tbaa !110
  %10 = and i64 %9, 32512
  %11 = lshr i64 %10, 8
  %12 = trunc i64 %11 to i32
  switch i32 %12, label %41 [
    i32 29, label %13
    i32 27, label %17
    i32 28, label %21
    i32 25, label %25
    i32 26, label %29
    i32 24, label %33
    i32 30, label %37
  ]

13:                                               ; preds = %3
  %14 = load ptr, ptr %6, align 8, !tbaa !65
  %15 = load ptr, ptr %5, align 8, !tbaa !65
  %16 = getelementptr inbounds nuw %struct.RNode_CDECL, ptr %15, i32 0, i32 2
  store ptr %14, ptr %16, align 8, !tbaa !386
  br label %50

17:                                               ; preds = %3
  %18 = load ptr, ptr %6, align 8, !tbaa !65
  %19 = load ptr, ptr %5, align 8, !tbaa !65
  %20 = getelementptr inbounds nuw %struct.RNode_GASGN, ptr %19, i32 0, i32 2
  store ptr %18, ptr %20, align 8, !tbaa !388
  br label %50

21:                                               ; preds = %3
  %22 = load ptr, ptr %6, align 8, !tbaa !65
  %23 = load ptr, ptr %5, align 8, !tbaa !65
  %24 = getelementptr inbounds nuw %struct.RNode_IASGN, ptr %23, i32 0, i32 2
  store ptr %22, ptr %24, align 8, !tbaa !390
  br label %50

25:                                               ; preds = %3
  %26 = load ptr, ptr %6, align 8, !tbaa !65
  %27 = load ptr, ptr %5, align 8, !tbaa !65
  %28 = getelementptr inbounds nuw %struct.RNode_LASGN, ptr %27, i32 0, i32 2
  store ptr %26, ptr %28, align 8, !tbaa !392
  br label %50

29:                                               ; preds = %3
  %30 = load ptr, ptr %6, align 8, !tbaa !65
  %31 = load ptr, ptr %5, align 8, !tbaa !65
  %32 = getelementptr inbounds nuw %struct.RNode_DASGN, ptr %31, i32 0, i32 2
  store ptr %30, ptr %32, align 8, !tbaa !394
  br label %50

33:                                               ; preds = %3
  %34 = load ptr, ptr %6, align 8, !tbaa !65
  %35 = load ptr, ptr %5, align 8, !tbaa !65
  %36 = getelementptr inbounds nuw %struct.RNode_MASGN, ptr %35, i32 0, i32 2
  store ptr %34, ptr %36, align 8, !tbaa !155
  br label %50

37:                                               ; preds = %3
  %38 = load ptr, ptr %6, align 8, !tbaa !65
  %39 = load ptr, ptr %5, align 8, !tbaa !65
  %40 = getelementptr inbounds nuw %struct.RNode_CVASGN, ptr %39, i32 0, i32 2
  store ptr %38, ptr %40, align 8, !tbaa !396
  br label %50

41:                                               ; preds = %3
  %42 = load ptr, ptr %4, align 8, !tbaa !7
  %43 = load ptr, ptr %5, align 8, !tbaa !65
  %44 = getelementptr inbounds nuw %struct.RNode, ptr %43, i32 0, i32 0
  %45 = load i64, ptr %44, align 8, !tbaa !110
  %46 = and i64 %45, 32512
  %47 = lshr i64 %46, 8
  %48 = trunc i64 %47 to i32
  %49 = call ptr @parser_node_name(i32 noundef %48)
  call void (ptr, ptr, ptr, ...) @parser_compile_error(ptr noundef %42, ptr noundef null, ptr noundef @.str.571, ptr noundef %49)
  br label %50

50:                                               ; preds = %41, %37, %33, %29, %25, %21, %17, %13
  ret void
}

; Function Attrs: nounwind sspstrong uwtable
define internal ptr @node_assign(ptr noundef %0, ptr noundef %1, ptr noundef %2, i32 %3, ptr noundef %4) #0 {
  %6 = alloca ptr, align 8
  %7 = alloca %struct.lex_context, align 4
  %8 = alloca ptr, align 8
  %9 = alloca ptr, align 8
  %10 = alloca ptr, align 8
  %11 = alloca ptr, align 8
  store i32 %3, ptr %7, align 4
  store ptr %0, ptr %8, align 8, !tbaa !7
  store ptr %1, ptr %9, align 8, !tbaa !65
  store ptr %2, ptr %10, align 8, !tbaa !65
  store ptr %4, ptr %11, align 8, !tbaa !39
  %12 = load ptr, ptr %9, align 8, !tbaa !65
  %13 = icmp ne ptr %12, null
  br i1 %13, label %15, label %14

14:                                               ; preds = %5
  store ptr null, ptr %6, align 8
  br label %45

15:                                               ; preds = %5
  %16 = load ptr, ptr %9, align 8, !tbaa !65
  %17 = getelementptr inbounds nuw %struct.RNode, ptr %16, i32 0, i32 0
  %18 = load i64, ptr %17, align 8, !tbaa !110
  %19 = and i64 %18, 32512
  %20 = lshr i64 %19, 8
  %21 = trunc i64 %20 to i32
  switch i32 %21, label %42 [
    i32 29, label %22
    i32 27, label %22
    i32 28, label %22
    i32 25, label %22
    i32 26, label %22
    i32 24, label %22
    i32 30, label %22
    i32 103, label %29
  ]

22:                                               ; preds = %15, %15, %15, %15, %15, %15, %15
  %23 = load ptr, ptr %8, align 8, !tbaa !7
  %24 = load ptr, ptr %9, align 8, !tbaa !65
  %25 = load ptr, ptr %10, align 8, !tbaa !65
  call void @set_nd_value(ptr noundef %23, ptr noundef %24, ptr noundef %25)
  %26 = load ptr, ptr %9, align 8, !tbaa !65
  %27 = load ptr, ptr %11, align 8, !tbaa !39
  %28 = call ptr @nd_set_loc(ptr noundef %26, ptr noundef %27)
  br label %43

29:                                               ; preds = %15
  %30 = load ptr, ptr %8, align 8, !tbaa !7
  %31 = load ptr, ptr %9, align 8, !tbaa !65
  %32 = getelementptr inbounds nuw %struct.RNode_ATTRASGN, ptr %31, i32 0, i32 3
  %33 = load ptr, ptr %32, align 8, !tbaa !249
  %34 = load ptr, ptr %10, align 8, !tbaa !65
  %35 = load ptr, ptr %11, align 8, !tbaa !39
  %36 = call ptr @arg_append(ptr noundef %30, ptr noundef %33, ptr noundef %34, ptr noundef %35)
  %37 = load ptr, ptr %9, align 8, !tbaa !65
  %38 = getelementptr inbounds nuw %struct.RNode_ATTRASGN, ptr %37, i32 0, i32 3
  store ptr %36, ptr %38, align 8, !tbaa !249
  %39 = load ptr, ptr %9, align 8, !tbaa !65
  %40 = load ptr, ptr %11, align 8, !tbaa !39
  %41 = call ptr @nd_set_loc(ptr noundef %39, ptr noundef %40)
  br label %43

42:                                               ; preds = %15
  br label %43

43:                                               ; preds = %42, %29, %22
  %44 = load ptr, ptr %9, align 8, !tbaa !65
  store ptr %44, ptr %6, align 8
  br label %45

45:                                               ; preds = %43, %14
  %46 = load ptr, ptr %6, align 8
  ret ptr %46
}