; Function Attrs: nounwind sspstrong uwtable
define internal fastcc noundef ptr @node_assign(ptr noundef captures(none) %0, ptr noundef returned captures(address_is_null, ret: address, provenance) %1, ptr noundef %2, ptr noundef readonly captures(none) %3) unnamed_addr #0 {
  %.not = icmp eq ptr %1, null
  br i1 %.not, label %21, label %5

5:                                                ; preds = %4
  %6 = load i64, ptr %1, align 8, !tbaa !72
  %7 = trunc i64 %6 to i32
  %8 = lshr i32 %7, 8
  %9 = and i32 %8, 127
  switch i32 %9, label %21 [
    i32 103, label %12
    i32 29, label %set_nd_value.exit
    i32 27, label %set_nd_value.exit
    i32 28, label %set_nd_value.exit
    i32 25, label %set_nd_value.exit
    i32 26, label %set_nd_value.exit
    i32 24, label %set_nd_value.exit
    i32 30, label %set_nd_value.exit
  ]

set_nd_value.exit:                                ; preds = %5, %5, %5, %5, %5, %5, %5
  %10 = getelementptr inbounds nuw i8, ptr %1, i64 40
  store ptr %2, ptr %10, align 8, !tbaa !249
  %11 = getelementptr inbounds nuw i8, ptr %1, i64 8
  tail call void @llvm.memcpy.p0.p0.i64(ptr noundef nonnull align 8 dereferenceable(16) %11, ptr noundef nonnull readonly align 4 dereferenceable(16) %3, i64 16, i1 false), !tbaa.struct !59
  br label %.sink.split

12:                                               ; preds = %5
  %13 = getelementptr inbounds nuw i8, ptr %1, i64 48
  %14 = load ptr, ptr %13, align 8, !tbaa !250
  %15 = tail call fastcc ptr @arg_append(ptr noundef %0, ptr noundef %14, ptr noundef %2, ptr noundef %3)
  store ptr %15, ptr %13, align 8, !tbaa !250
  %16 = getelementptr inbounds nuw i8, ptr %1, i64 8
  tail call void @llvm.memcpy.p0.p0.i64(ptr noundef nonnull align 8 dereferenceable(16) %16, ptr noundef nonnull readonly align 4 dereferenceable(16) %3, i64 16, i1 false), !tbaa.struct !59
  %17 = load i64, ptr %1, align 8, !tbaa !72
  br label %.sink.split

.sink.split:                                      ; preds = %12, %set_nd_value.exit
  %.sink19 = phi i64 [ %6, %set_nd_value.exit ], [ %17, %12 ]
  %.sink.in = load i32, ptr %3, align 4, !tbaa !53
  %.sink = sext i32 %.sink.in to i64
  %18 = and i64 %.sink19, 32767
  %19 = shl nsw i64 %.sink, 15
  %20 = or disjoint i64 %18, %19
  store i64 %20, ptr %1, align 8, !tbaa !72
  br label %21

21:                                               ; preds = %.sink.split, %5, %4
  ret ptr %1
}